; ModuleID = '58/976.c'
source_filename = "58/976.c"
target datalayout = "e-m:e-p270:32:32-p271:32:32-p272:64:64-i64:64-f80:128-n8:16:32:64-S128"
target triple = "x86_64-pc-linux-gnu"

@.str = private unnamed_addr constant [3 x i8] c"%d\00", align 1
@.str.1 = private unnamed_addr constant [4 x i8] c"%d\0A\00", align 1

; Function Attrs: noinline nounwind uwtable
define dso_local i32 @main() #0 {
  %1 = alloca i32, align 4
  %2 = alloca i32, align 4
  %3 = alloca i32, align 4
  %4 = alloca i32, align 4
  %5 = alloca i32, align 4
  %6 = alloca [1000 x i32], align 16
  %7 = alloca i32*, align 8
  %8 = alloca [1000 x [81 x i8]], align 16
  %9 = alloca [1000 x i8*], align 16
  store i32 0, i32* %1, align 4
  %10 = call i32 (i8*, ...) @__isoc99_scanf(i8* getelementptr inbounds ([3 x i8], [3 x i8]* @.str, i64 0, i64 0), i32* %2)
  %11 = getelementptr inbounds [1000 x i32], [1000 x i32]* %6, i64 0, i64 0
  store i32* %11, i32** %7, align 8
  store i32 0, i32* %3, align 4
  br label %12

12:                                               ; preds = %30, %0
  %13 = load i32, i32* %3, align 4
  %14 = load i32, i32* %2, align 4
  %15 = add nsw i32 %14, 1
  %16 = icmp slt i32 %13, %15
  br i1 %16, label %17, label %33

17:                                               ; preds = %12
  %18 = load i32, i32* %3, align 4
  %19 = sext i32 %18 to i64
  %20 = getelementptr inbounds [1000 x [81 x i8]], [1000 x [81 x i8]]* %8, i64 0, i64 %19
  %21 = getelementptr inbounds [81 x i8], [81 x i8]* %20, i64 0, i64 0
  %22 = load i32, i32* %3, align 4
  %23 = sext i32 %22 to i64
  %24 = getelementptr inbounds [1000 x i8*], [1000 x i8*]* %9, i64 0, i64 %23
  store i8* %21, i8** %24, align 8
  %25 = load i32, i32* %3, align 4
  %26 = sext i32 %25 to i64
  %27 = getelementptr inbounds [1000 x i8*], [1000 x i8*]* %9, i64 0, i64 %26
  %28 = load i8*, i8** %27, align 8
  %29 = call i32 (i8*, ...) bitcast (i32 (...)* @gets to i32 (i8*, ...)*)(i8* %28)
  br label %30

30:                                               ; preds = %17
  %31 = load i32, i32* %3, align 4
  %32 = add nsw i32 %31, 1
  store i32 %32, i32* %3, align 4
  br label %12

33:                                               ; preds = %12
  store i32 1, i32* %3, align 4
  br label %34

34:                                               ; preds = %152, %33
  %35 = load i32, i32* %3, align 4
  %36 = load i32, i32* %2, align 4
  %37 = add nsw i32 %36, 1
  %38 = icmp slt i32 %35, %37
  br i1 %38, label %39, label %155

39:                                               ; preds = %34
  %40 = load i32, i32* %3, align 4
  %41 = sext i32 %40 to i64
  %42 = getelementptr inbounds [1000 x i8*], [1000 x i8*]* %9, i64 0, i64 %41
  %43 = load i8*, i8** %42, align 8
  %44 = call i64 @strlen(i8* %43) #3
  %45 = trunc i64 %44 to i32
  store i32 %45, i32* %5, align 4
  %46 = load i32, i32* %3, align 4
  %47 = sext i32 %46 to i64
  %48 = getelementptr inbounds [1000 x i8*], [1000 x i8*]* %9, i64 0, i64 %47
  %49 = load i8*, i8** %48, align 8
  %50 = load i8, i8* %49, align 1
  %51 = sext i8 %50 to i32
  %52 = icmp sge i32 %51, 48
  br i1 %52, label %53, label %66

53:                                               ; preds = %39
  %54 = load i32, i32* %3, align 4
  %55 = sext i32 %54 to i64
  %56 = getelementptr inbounds [1000 x i8*], [1000 x i8*]* %9, i64 0, i64 %55
  %57 = load i8*, i8** %56, align 8
  %58 = load i8, i8* %57, align 1
  %59 = sext i8 %58 to i32
  %60 = icmp sle i32 %59, 57
  br i1 %60, label %61, label %66

61:                                               ; preds = %53
  %62 = load i32*, i32** %7, align 8
  %63 = load i32, i32* %3, align 4
  %64 = sext i32 %63 to i64
  %65 = getelementptr inbounds i32, i32* %62, i64 %64
  store i32 0, i32* %65, align 4
  br label %151

66:                                               ; preds = %53, %39
  store i32 0, i32* %4, align 4
  br label %67

67:                                               ; preds = %147, %66
  %68 = load i32, i32* %4, align 4
  %69 = load i32, i32* %5, align 4
  %70 = icmp slt i32 %68, %69
  br i1 %70, label %71, label %150

71:                                               ; preds = %67
  %72 = load i32, i32* %3, align 4
  %73 = sext i32 %72 to i64
  %74 = getelementptr inbounds [1000 x i8*], [1000 x i8*]* %9, i64 0, i64 %73
  %75 = load i8*, i8** %74, align 8
  %76 = load i32, i32* %4, align 4
  %77 = sext i32 %76 to i64
  %78 = getelementptr inbounds i8, i8* %75, i64 %77
  %79 = load i8, i8* %78, align 1
  %80 = sext i8 %79 to i32
  %81 = icmp eq i32 %80, 32
  br i1 %81, label %137, label %82

82:                                               ; preds = %71
  %83 = load i32, i32* %3, align 4
  %84 = sext i32 %83 to i64
  %85 = getelementptr inbounds [1000 x i8*], [1000 x i8*]* %9, i64 0, i64 %84
  %86 = load i8*, i8** %85, align 8
  %87 = load i32, i32* %4, align 4
  %88 = sext i32 %87 to i64
  %89 = getelementptr inbounds i8, i8* %86, i64 %88
  %90 = load i8, i8* %89, align 1
  %91 = sext i8 %90 to i32
  %92 = icmp eq i32 %91, 46
  br i1 %92, label %137, label %93

93:                                               ; preds = %82
  %94 = load i32, i32* %3, align 4
  %95 = sext i32 %94 to i64
  %96 = getelementptr inbounds [1000 x i8*], [1000 x i8*]* %9, i64 0, i64 %95
  %97 = load i8*, i8** %96, align 8
  %98 = load i32, i32* %4, align 4
  %99 = sext i32 %98 to i64
  %100 = getelementptr inbounds i8, i8* %97, i64 %99
  %101 = load i8, i8* %100, align 1
  %102 = sext i8 %101 to i32
  %103 = icmp eq i32 %102, 43
  br i1 %103, label %137, label %104

104:                                              ; preds = %93
  %105 = load i32, i32* %3, align 4
  %106 = sext i32 %105 to i64
  %107 = getelementptr inbounds [1000 x i8*], [1000 x i8*]* %9, i64 0, i64 %106
  %108 = load i8*, i8** %107, align 8
  %109 = load i32, i32* %4, align 4
  %110 = sext i32 %109 to i64
  %111 = getelementptr inbounds i8, i8* %108, i64 %110
  %112 = load i8, i8* %111, align 1
  %113 = sext i8 %112 to i32
  %114 = icmp eq i32 %113, 45
  br i1 %114, label %137, label %115

115:                                              ; preds = %104
  %116 = load i32, i32* %3, align 4
  %117 = sext i32 %116 to i64
  %118 = getelementptr inbounds [1000 x i8*], [1000 x i8*]* %9, i64 0, i64 %117
  %119 = load i8*, i8** %118, align 8
  %120 = load i32, i32* %4, align 4
  %121 = sext i32 %120 to i64
  %122 = getelementptr inbounds i8, i8* %119, i64 %121
  %123 = load i8, i8* %122, align 1
  %124 = sext i8 %123 to i32
  %125 = icmp eq i32 %124, 64
  br i1 %125, label %137, label %126

126:                                              ; preds = %115
  %127 = load i32, i32* %3, align 4
  %128 = sext i32 %127 to i64
  %129 = getelementptr inbounds [1000 x i8*], [1000 x i8*]* %9, i64 0, i64 %128
  %130 = load i8*, i8** %129, align 8
  %131 = load i32, i32* %4, align 4
  %132 = sext i32 %131 to i64
  %133 = getelementptr inbounds i8, i8* %130, i64 %132
  %134 = load i8, i8* %133, align 1
  %135 = sext i8 %134 to i32
  %136 = icmp eq i32 %135, 61
  br i1 %136, label %137, label %141

137:                                              ; preds = %126, %115, %104, %93, %82, %71
  %138 = load i32, i32* %3, align 4
  %139 = sext i32 %138 to i64
  %140 = getelementptr inbounds [1000 x i32], [1000 x i32]* %6, i64 0, i64 %139
  store i32 0, i32* %140, align 4
  br label %150

141:                                              ; preds = %126
  %142 = load i32*, i32** %7, align 8
  %143 = load i32, i32* %3, align 4
  %144 = sext i32 %143 to i64
  %145 = getelementptr inbounds i32, i32* %142, i64 %144
  store i32 1, i32* %145, align 4
  br label %146

146:                                              ; preds = %141
  br label %147

147:                                              ; preds = %146
  %148 = load i32, i32* %4, align 4
  %149 = add nsw i32 %148, 1
  store i32 %149, i32* %4, align 4
  br label %67

150:                                              ; preds = %137, %67
  br label %151

151:                                              ; preds = %150, %61
  br label %152

152:                                              ; preds = %151
  %153 = load i32, i32* %3, align 4
  %154 = add nsw i32 %153, 1
  store i32 %154, i32* %3, align 4
  br label %34

155:                                              ; preds = %34
  store i32 1, i32* %3, align 4
  br label %156

156:                                              ; preds = %168, %155
  %157 = load i32, i32* %3, align 4
  %158 = load i32, i32* %2, align 4
  %159 = add nsw i32 %158, 1
  %160 = icmp slt i32 %157, %159
  br i1 %160, label %161, label %171

161:                                              ; preds = %156
  %162 = load i32*, i32** %7, align 8
  %163 = load i32, i32* %3, align 4
  %164 = sext i32 %163 to i64
  %165 = getelementptr inbounds i32, i32* %162, i64 %164
  %166 = load i32, i32* %165, align 4
  %167 = call i32 (i8*, ...) @printf(i8* getelementptr inbounds ([4 x i8], [4 x i8]* @.str.1, i64 0, i64 0), i32 %166)
  br label %168

168:                                              ; preds = %161
  %169 = load i32, i32* %3, align 4
  %170 = add nsw i32 %169, 1
  store i32 %170, i32* %3, align 4
  br label %156

171:                                              ; preds = %156
  ret i32 0
}

declare dso_local i32 @__isoc99_scanf(i8*, ...) #1

declare dso_local i32 @gets(...) #1

; Function Attrs: nounwind readonly
declare dso_local i64 @strlen(i8*) #2

declare dso_local i32 @printf(i8*, ...) #1


!llvm.module.flags = !{!0}
!llvm.ident = !{!1}

!0 = !{i32 1, !"wchar_size", i32 4}
!1 = !{!"clang version 10.0.0-4ubuntu1 "}
